(dp0
S'calories protein'
p1
S'41600'
p2
sS'walking'
p3
S'10900'
p4
sS'aspirin cardiologist'
p5
S'20800'
p6
sS'hiv'
p7
S'27600'
p8
sS'cardiology'
p9
S'75'
p10
sS'dental'
p11
S'51600'
p12
sS'aspirin cholesterol'
p13
S'21100'
p14
sS'eating protein'
p15
S'45900'
p16
sS'fat'
p17
S'91000'
p18
sS'eating weight'
p19
S'143000'
p20
sS'heart surgery'
p21
S'35100'
p22
sS'exercise weight'
p23
S'129000'
p24
sS'acid diets'
p25
S'11100'
p26
sS'aids'
p27
S'14900'
p28
sS'diabetes'
p29
S'305000'
p30
sS'radiation treatment'
p31
S'3730'
p32
sS'cancer'
p33
S'21400'
p34
sS'exercise protein'
p35
S'38300'
p36
sS'aerobic'
p37
S'6790'
p38
sS'cholesterol doctor'
p39
S'33700'
p40
sS'challenge walk'
p41
S'69300'
p42
sS'blood insulin'
p43
S'59100'
p44
sS'cholesterol lipitor'
p45
S'13800'
p46
sS'calories weight'
p47
S'127000'
p48
sS'bodybuilding protein'
p49
S'40'
p50
sS'fitness'
p51
S'82500'
p52
sS'dairy milk'
p53
S'20700'
p54
sS'workout'
p55
S'3470'
p56
sS'blood heart'
p57
S'126000'
p58
s.